target datalayout = "e-m:e-p270:32:32-p271:32:32-p272:64:64-i64:64-i128:128-f80:128-n8:16:32:64-S128"
target triple = "x86_64-pc-linux-gnu"

; Function Attrs: nounwind uwtable
define hidden void @VP8LSubtractGreenFromBlueAndRed_C(ptr noundef %0, i32 noundef %1) #0 {
  %3 = alloca ptr, align 8
  %4 = alloca i32, align 4
  %5 = alloca i32, align 4
  %6 = alloca i32, align 4
  %7 = alloca i32, align 4
  %8 = alloca i32, align 4
  %9 = alloca i32, align 4
  store ptr %0, ptr %3, align 8
  store i32 %1, ptr %4, align 4
  store i32 0, ptr %5, align 4
  br label %10

10:                                               ; preds = %46, %2
  %11 = load i32, ptr %5, align 4
  %12 = load i32, ptr %4, align 4
  %13 = icmp slt i32 %11, %12
  br i1 %13, label %14, label %49

14:                                               ; preds = %10
  %15 = load ptr, ptr %3, align 8
  %16 = load i32, ptr %5, align 4
  %17 = sext i32 %16 to i64
  %18 = getelementptr inbounds i32, ptr %15, i64 %17
  %19 = load i32, ptr %18, align 4
  store i32 %19, ptr %6, align 4
  %20 = load i32, ptr %6, align 4
  %21 = ashr i32 %20, 8
  %22 = and i32 %21, 255
  store i32 %22, ptr %7, align 4
  %23 = load i32, ptr %6, align 4
  %24 = ashr i32 %23, 16
  %25 = and i32 %24, 255
  %26 = load i32, ptr %7, align 4
  %27 = sub nsw i32 %25, %26
  %28 = and i32 %27, 255
  store i32 %28, ptr %8, align 4
  %29 = load i32, ptr %6, align 4
  %30 = ashr i32 %29, 0
  %31 = and i32 %30, 255
  %32 = load i32, ptr %7, align 4
  %33 = sub nsw i32 %31, %32
  %34 = and i32 %33, 255
  store i32 %34, ptr %9, align 4
  %35 = load i32, ptr %6, align 4
  %36 = and i32 %35, -16711936
  %37 = load i32, ptr %8, align 4
  %38 = shl i32 %37, 16
  %39 = or i32 %36, %38
  %40 = load i32, ptr %9, align 4
  %41 = or i32 %39, %40
  %42 = load ptr, ptr %3, align 8
  %43 = load i32, ptr %5, align 4
  %44 = sext i32 %43 to i64
  %45 = getelementptr inbounds i32, ptr %42, i64 %44
  store i32 %41, ptr %45, align 4
  br label %46

46:                                               ; preds = %14
  %47 = load i32, ptr %5, align 4
  %48 = add nsw i32 %47, 1
  store i32 %48, ptr %5, align 4
  br label %10, !llvm.loop !6

49:                                               ; preds = %10
  ret void
}