; Function Attrs: nofree norecurse nosync nounwind memory(argmem: readwrite) uwtable
define hidden void @VP8LSubtractGreenFromBlueAndRed_C(ptr nocapture noundef %0, i32 noundef %1) #2 {
  %3 = icmp sgt i32 %1, 0
  br i1 %3, label %.lr.ph.preheader, label %._crit_edge

.lr.ph.preheader:                                 ; preds = %2
  %wide.trip.count = zext nneg i32 %1 to i64
  br label %.lr.ph

.lr.ph:                                           ; preds = %.lr.ph.preheader, %.lr.ph
  %indvars.iv = phi i64 [ 0, %.lr.ph.preheader ], [ %indvars.iv.next, %.lr.ph ]
  %4 = getelementptr inbounds i32, ptr %0, i64 %indvars.iv
  %5 = load i32, ptr %4, align 4
  %6 = lshr i32 %5, 8
  %7 = sub i32 %5, %6
  %8 = and i32 %7, 255
  %9 = and i32 %5, -16711936
  %10 = shl i32 %6, 16
  %11 = sub i32 %5, %10
  %12 = and i32 %11, 16711680
  %13 = or disjoint i32 %8, %9
  %14 = or disjoint i32 %13, %12
  store i32 %14, ptr %4, align 4
  %indvars.iv.next = add nuw nsw i64 %indvars.iv, 1
  %exitcond.not = icmp eq i64 %indvars.iv.next, %wide.trip.count
  br i1 %exitcond.not, label %._crit_edge, label %.lr.ph, !llvm.loop !6

._crit_edge:                                      ; preds = %.lr.ph, %2
  ret void
}